; Function Attrs: mustprogress nofree norecurse nosync nounwind willreturn memory(read, inaccessiblemem: none) uwtable
define range(i32 0, 2) i32 @Aig_ManCounterExampleValueLookup(ptr noundef readonly captures(none) %0, i32 noundef %1, i32 noundef %2) local_unnamed_addr #6 {
  %4 = getelementptr inbounds nuw i8, ptr %0, i64 304
  %5 = load ptr, ptr %4, align 8, !tbaa !101
  %6 = getelementptr i8, ptr %0, i64 32
  %.val = load ptr, ptr %6, align 8, !tbaa !21
  %7 = getelementptr i8, ptr %.val, i64 4
  %.val.val = load i32, ptr %7, align 4, !tbaa !22
  %8 = mul nsw i32 %.val.val, %2
  %9 = add nsw i32 %8, %1
  %10 = ashr i32 %9, 5
  %11 = sext i32 %10 to i64
  %12 = getelementptr inbounds i32, ptr %5, i64 %11
  %13 = load i32, ptr %12, align 4, !tbaa !30
  %14 = and i32 %9, 31
  %15 = lshr i32 %13, %14
  %16 = and i32 %15, 1
  ret i32 %16
}